target datalayout = "e-m:e-p270:32:32-p271:32:32-p272:64:64-i64:64-i128:128-f80:128-n8:16:32:64-S128"
target triple = "x86_64-pc-linux-gnu"

; Function Attrs: nounwind uwtable
define i32 @BN_GF2m_arr2poly(ptr noundef %0, ptr noundef %1) #0 {
  %3 = alloca i32, align 4
  %4 = alloca ptr, align 8
  %5 = alloca ptr, align 8
  %6 = alloca i32, align 4
  %7 = alloca i32, align 4
  store ptr %0, ptr %4, align 8, !tbaa !19
  store ptr %1, ptr %5, align 8, !tbaa !3
  call void @llvm.lifetime.start.p0(i64 4, ptr %6) #3
  %8 = load ptr, ptr %5, align 8, !tbaa !3
  call void @BN_zero_ex(ptr noundef %8)
  store i32 0, ptr %6, align 4, !tbaa !12
  br label %9

9:                                                ; preds = %27, %2
  %10 = load ptr, ptr %4, align 8, !tbaa !19
  %11 = load i32, ptr %6, align 4, !tbaa !12
  %12 = sext i32 %11 to i64
  %13 = getelementptr inbounds i32, ptr %10, i64 %12
  %14 = load i32, ptr %13, align 4, !tbaa !12
  %15 = icmp ne i32 %14, -1
  br i1 %15, label %16, label %30

16:                                               ; preds = %9
  %17 = load ptr, ptr %5, align 8, !tbaa !3
  %18 = load ptr, ptr %4, align 8, !tbaa !19
  %19 = load i32, ptr %6, align 4, !tbaa !12
  %20 = sext i32 %19 to i64
  %21 = getelementptr inbounds i32, ptr %18, i64 %20
  %22 = load i32, ptr %21, align 4, !tbaa !12
  %23 = call i32 @BN_set_bit(ptr noundef %17, i32 noundef %22)
  %24 = icmp eq i32 %23, 0
  br i1 %24, label %25, label %26

25:                                               ; preds = %16
  store i32 0, ptr %3, align 4
  store i32 1, ptr %7, align 4
  br label %31

26:                                               ; preds = %16
  br label %27

27:                                               ; preds = %26
  %28 = load i32, ptr %6, align 4, !tbaa !12
  %29 = add nsw i32 %28, 1
  store i32 %29, ptr %6, align 4, !tbaa !12
  br label %9, !llvm.loop !44

30:                                               ; preds = %9
  store i32 1, ptr %3, align 4
  store i32 1, ptr %7, align 4
  br label %31

31:                                               ; preds = %30, %25
  call void @llvm.lifetime.end.p0(i64 4, ptr %6) #3
  %32 = load i32, ptr %3, align 4
  ret i32 %32
}

; Function Attrs: nounwind uwtable
define i32 @BN_GF2m_mod_inv_arr(ptr noundef %0, ptr noundef %1, ptr noundef %2, ptr noundef %3) #0 {
  %5 = alloca ptr, align 8
  %6 = alloca ptr, align 8
  %7 = alloca ptr, align 8
  %8 = alloca ptr, align 8
  %9 = alloca ptr, align 8
  %10 = alloca i32, align 4
  store ptr %0, ptr %5, align 8, !tbaa !3
  store ptr %1, ptr %6, align 8, !tbaa !3
  store ptr %2, ptr %7, align 8, !tbaa !19
  store ptr %3, ptr %8, align 8, !tbaa !29
  call void @llvm.lifetime.start.p0(i64 8, ptr %9) #3
  call void @llvm.lifetime.start.p0(i64 4, ptr %10) #3
  store i32 0, ptr %10, align 4, !tbaa !12
  %11 = load ptr, ptr %8, align 8, !tbaa !29
  call void @BN_CTX_start(ptr noundef %11)
  %12 = load ptr, ptr %8, align 8, !tbaa !29
  %13 = call ptr @BN_CTX_get(ptr noundef %12)
  store ptr %13, ptr %9, align 8, !tbaa !3
  %14 = icmp eq ptr %13, null
  br i1 %14, label %15, label %16

15:                                               ; preds = %4
  br label %28

16:                                               ; preds = %4
  %17 = load ptr, ptr %7, align 8, !tbaa !19
  %18 = load ptr, ptr %9, align 8, !tbaa !3
  %19 = call i32 @BN_GF2m_arr2poly(ptr noundef %17, ptr noundef %18)
  %20 = icmp ne i32 %19, 0
  br i1 %20, label %22, label %21

21:                                               ; preds = %16
  br label %28

22:                                               ; preds = %16
  %23 = load ptr, ptr %5, align 8, !tbaa !3
  %24 = load ptr, ptr %6, align 8, !tbaa !3
  %25 = load ptr, ptr %9, align 8, !tbaa !3
  %26 = load ptr, ptr %8, align 8, !tbaa !29
  %27 = call i32 @BN_GF2m_mod_inv(ptr noundef %23, ptr noundef %24, ptr noundef %25, ptr noundef %26)
  store i32 %27, ptr %10, align 4, !tbaa !12
  br label %28

28:                                               ; preds = %22, %21, %15
  %29 = load ptr, ptr %8, align 8, !tbaa !29
  call void @BN_CTX_end(ptr noundef %29)
  %30 = load i32, ptr %10, align 4, !tbaa !12
  call void @llvm.lifetime.end.p0(i64 4, ptr %10) #3
  call void @llvm.lifetime.end.p0(i64 8, ptr %9) #3
  ret i32 %30
}