; Function Attrs: nounwind uwtable
define range(i32 0, 2) i32 @BN_GF2m_mod_inv_arr(ptr noundef %0, ptr noundef captures(address) %1, ptr noundef readonly captures(none) %2, ptr noundef %3) local_unnamed_addr #0 {
  tail call void @BN_CTX_start(ptr noundef %3) #5
  %5 = tail call ptr @BN_CTX_get(ptr noundef %3) #5
  %6 = icmp eq ptr %5, null
  br i1 %6, label %BN_GF2m_arr2poly.exit, label %7

7:                                                ; preds = %4
  tail call void @BN_zero_ex(ptr noundef nonnull %5) #5
  %8 = load i32, ptr %2, align 4, !tbaa !16
  %.not9.i = icmp eq i32 %8, -1
  br i1 %.not9.i, label %.loopexit, label %.lr.ph.i

9:                                                ; preds = %.lr.ph.i
  %indvars.iv.next.i = add nuw nsw i64 %indvars.iv.i, 1
  %10 = getelementptr inbounds nuw i32, ptr %2, i64 %indvars.iv.next.i
  %11 = load i32, ptr %10, align 4, !tbaa !16
  %.not.i = icmp eq i32 %11, -1
  br i1 %.not.i, label %.loopexit, label %.lr.ph.i, !llvm.loop !32

.lr.ph.i:                                         ; preds = %7, %9
  %indvars.iv.i = phi i64 [ %indvars.iv.next.i, %9 ], [ 0, %7 ]
  %12 = phi i32 [ %11, %9 ], [ %8, %7 ]
  %13 = tail call i32 @BN_set_bit(ptr noundef nonnull %5, i32 noundef %12) #5
  %14 = icmp eq i32 %13, 0
  br i1 %14, label %BN_GF2m_arr2poly.exit, label %9

.loopexit:                                        ; preds = %9, %7
  %15 = tail call i32 @BN_GF2m_mod_inv(ptr noundef %0, ptr noundef %1, ptr noundef nonnull %5, ptr noundef %3)
  br label %BN_GF2m_arr2poly.exit

BN_GF2m_arr2poly.exit:                            ; preds = %.lr.ph.i, %4, %.loopexit
  %.0 = phi i32 [ 0, %4 ], [ %15, %.loopexit ], [ 0, %.lr.ph.i ]
  tail call void @BN_CTX_end(ptr noundef %3) #5
  ret i32 %.0
}